target datalayout = "e-m:e-p270:32:32-p271:32:32-p272:64:64-i64:64-i128:128-f80:128-n8:16:32:64-S128"
target triple = "x86_64-pc-linux-gnu"

@.str.9 = private unnamed_addr constant [68 x i8] c"\0AidasSlCrank_dns: Slider-Crank DAE serial example problem for IDAS\0A\00", align 1
@.str.10 = private unnamed_addr constant [53 x i8] c"Linear solver: DENSE, Jacobian is computed by IDAS.\0A\00", align 1
@.str.11 = private unnamed_addr constant [46 x i8] c"Tolerance parameters:  rtol = %g   atol = %g\0A\00", align 1
@.str.12 = private unnamed_addr constant [73 x i8] c"-----------------------------------------------------------------------\0A\00", align 1
@.str.13 = private unnamed_addr constant [40 x i8] c"  t         y1          y2           y3\00", align 1
@.str.14 = private unnamed_addr constant [23 x i8] c"      | nst  k      h\0A\00", align 1

; Function Attrs: nounwind uwtable
define internal void @PrintHeader(double noundef %0, double noundef %1, ptr noundef %2) #0 {
  %4 = alloca double, align 8
  %5 = alloca double, align 8
  %6 = alloca ptr, align 8
  store double %0, ptr %4, align 8, !tbaa !25
  store double %1, ptr %5, align 8, !tbaa !25
  store ptr %2, ptr %6, align 8, !tbaa !15
  %7 = call i32 (ptr, ...) @printf(ptr noundef @.str.9)
  %8 = call i32 (ptr, ...) @printf(ptr noundef @.str.10)
  %9 = load double, ptr %4, align 8, !tbaa !25
  %10 = load double, ptr %5, align 8, !tbaa !25
  %11 = call i32 (ptr, ...) @printf(ptr noundef @.str.11, double noundef %9, double noundef %10)
  %12 = call i32 (ptr, ...) @printf(ptr noundef @.str.12)
  %13 = call i32 (ptr, ...) @printf(ptr noundef @.str.13)
  %14 = call i32 (ptr, ...) @printf(ptr noundef @.str.14)
  %15 = call i32 (ptr, ...) @printf(ptr noundef @.str.12)
  ret void
}