; Function Attrs: nofree nounwind uwtable
define internal fastcc void @PrintHeader() unnamed_addr #5 {
  %puts = tail call i32 @puts(ptr nonnull dereferenceable(1) @str.2)
  %puts2 = tail call i32 @puts(ptr nonnull dereferenceable(1) @str.3)
  %1 = tail call i32 (ptr, ...) @printf(ptr noundef nonnull dereferenceable(1) @.str.11, double noundef 0x3EB0C6F7A0B5ED8D, double noundef 0x3E7AD7F29ABCAF48)
  %puts3 = tail call i32 @puts(ptr nonnull dereferenceable(1) @str.6)
  %2 = tail call i32 (ptr, ...) @printf(ptr noundef nonnull dereferenceable(1) @.str.13)
  %puts4 = tail call i32 @puts(ptr nonnull dereferenceable(1) @str.5)
  %puts5 = tail call i32 @puts(ptr nonnull dereferenceable(1) @str.6)
  ret void
}